; ModuleID = 'bench/linux/original/bus_numa.ll'
source_filename = "bench/linux/original/bus_numa.ll"
target datalayout = "e-m:e-p270:32:32-p271:32:32-p272:64:64-i64:64-i128:128-f80:128-n8:16:32:64-S128"
target triple = "x86_64-unknown-linux-gnu"

%struct.list_head = type { ptr, ptr }
%struct.resource = type { i64, i64, ptr, i64, i64, ptr, ptr, ptr }

@pci_root_infos = dso_local global %struct.list_head { ptr @pci_root_infos, ptr @pci_root_infos }, align 8
@.str = private unnamed_addr constant [49 x i8] c"\017PCI: root bus %02x: hardware-probed resources\0A\00", align 1
@.str.1 = private unnamed_addr constant [47 x i8] c"\017PCI: root bus %02x: using default resources\0A\00", align 1
@ioport_resource = external dso_local global %struct.resource, align 8
@iomem_resource = external dso_local global %struct.resource, align 8
@.str.2 = private unnamed_addr constant [14 x i8] c"PCI Bus #%02x\00", align 1
@kmalloc_caches = external dso_local local_unnamed_addr global [3 x [14 x ptr]], align 16

; Function Attrs: fn_ret_thunk_extern nofree norecurse nosync nounwind null_pointer_is_valid memory(read, inaccessiblemem: none)
define dso_local i32 @x86_pci_root_bus_node(i32 noundef %0) local_unnamed_addr #0 align 16 {
  %2 = sext i32 %0 to i64
  br label %3

3:                                                ; preds = %7, %1
  %4 = phi ptr [ @pci_root_infos, %1 ], [ %5, %7 ]
  %5 = load ptr, ptr %4, align 8
  %6 = icmp eq ptr %5, @pci_root_infos
  br i1 %6, label %.thread, label %7

7:                                                ; preds = %3
  %8 = getelementptr inbounds i8, ptr %5, i64 48
  %9 = load i64, ptr %8, align 8
  %10 = icmp eq i64 %9, %2
  br i1 %10, label %11, label %3, !llvm.loop !5

11:                                               ; preds = %7
  %12 = icmp eq ptr %5, null
  br i1 %12, label %.thread, label %13

13:                                               ; preds = %11
  %14 = getelementptr inbounds i8, ptr %5, i64 112
  %15 = load i32, ptr %14, align 8
  br label %.thread

.thread:                                          ; preds = %3, %13, %11
  %16 = phi i32 [ %15, %13 ], [ -1, %11 ], [ -1, %3 ]
  ret i32 %16
}

; Function Attrs: fn_ret_thunk_extern nounwind null_pointer_is_valid
define dso_local void @x86_pci_root_bus_resources(i32 noundef %0, ptr noundef %1) local_unnamed_addr #1 align 16 {
  %3 = sext i32 %0 to i64
  br label %4

4:                                                ; preds = %8, %2
  %5 = phi ptr [ @pci_root_infos, %2 ], [ %6, %8 ]
  %6 = load ptr, ptr %5, align 8
  %7 = icmp eq ptr %6, @pci_root_infos
  br i1 %7, label %.thread, label %8

8:                                                ; preds = %4
  %9 = getelementptr inbounds i8, ptr %6, i64 48
  %10 = load i64, ptr %9, align 8
  %11 = icmp eq i64 %10, %3
  br i1 %11, label %12, label %4, !llvm.loop !5

12:                                               ; preds = %8
  %13 = getelementptr inbounds i8, ptr %6, i64 48
  %14 = icmp eq ptr %6, null
  br i1 %14, label %.thread, label %15

15:                                               ; preds = %12
  %16 = tail call i32 (ptr, ...) @_printk(ptr noundef nonnull @.str, i32 noundef %0) #8
  br label %17

17:                                               ; preds = %21, %15
  %18 = phi ptr [ %1, %15 ], [ %19, %21 ]
  %19 = load ptr, ptr %18, align 8
  %20 = icmp eq ptr %19, %1
  br i1 %20, label %28, label %21

21:                                               ; preds = %17
  %22 = getelementptr inbounds i8, ptr %19, i64 16
  %23 = load ptr, ptr %22, align 8
  %24 = getelementptr inbounds i8, ptr %23, i64 24
  %25 = load i64, ptr %24, align 8
  %26 = and i64 %25, 4096
  %27 = icmp eq i64 %26, 0
  br i1 %27, label %17, label %.loopexit5, !llvm.loop !8

28:                                               ; preds = %17
  tail call void @pci_add_resource(ptr noundef %1, ptr noundef %13) #9
  br label %.loopexit5

.loopexit5:                                       ; preds = %21, %28
  %29 = getelementptr inbounds i8, ptr %6, i64 32
  %30 = load ptr, ptr %29, align 8
  %31 = icmp eq ptr %30, %29
  br i1 %31, label %.loopexit, label %.preheader

.preheader:                                       ; preds = %.loopexit5, %.preheader
  %32 = phi ptr [ %34, %.preheader ], [ %30, %.loopexit5 ]
  %33 = getelementptr inbounds i8, ptr %32, i64 16
  tail call void @pci_add_resource(ptr noundef %1, ptr noundef %33) #9
  %34 = load ptr, ptr %32, align 8
  %35 = icmp eq ptr %34, %29
  br i1 %35, label %.loopexit, label %.preheader, !llvm.loop !9

.thread:                                          ; preds = %4, %12
  %36 = tail call i32 (ptr, ...) @_printk(ptr noundef nonnull @.str.1, i32 noundef %0) #8
  tail call void @pci_add_resource(ptr noundef %1, ptr noundef nonnull @ioport_resource) #9
  tail call void @pci_add_resource(ptr noundef %1, ptr noundef nonnull @iomem_resource) #9
  br label %.loopexit

.loopexit:                                        ; preds = %.preheader, %.thread, %.loopexit5
  ret void
}

; Function Attrs: cold null_pointer_is_valid
declare dso_local i32 @_printk(ptr noundef, ...) local_unnamed_addr #2

; Function Attrs: null_pointer_is_valid
declare dso_local void @pci_add_resource(ptr noundef, ptr noundef) local_unnamed_addr #3

; Function Attrs: cold fn_ret_thunk_extern nounwind null_pointer_is_valid optsize
define dso_local noundef ptr @alloc_pci_root_info(i32 noundef %0, i32 noundef %1, i32 noundef %2, i32 noundef %3) local_unnamed_addr #4 section ".init.text" align 16 {
  %5 = load ptr, ptr getelementptr inbounds ([3 x [14 x ptr]], ptr @kmalloc_caches, i64 0, i64 0, i64 7), align 8
  %6 = tail call noalias align 8 dereferenceable_or_null(120) ptr @kmalloc_trace(ptr noundef %5, i32 noundef 3520, i64 noundef 120) #10
  %7 = icmp eq ptr %6, null
  br i1 %7, label %23, label %8

8:                                                ; preds = %4
  %9 = getelementptr inbounds i8, ptr %6, i64 16
  %10 = tail call i32 (ptr, ptr, ...) @sprintf(ptr noundef %9, ptr noundef nonnull dereferenceable(1) @.str.2, i32 noundef %0) #9
  %11 = getelementptr inbounds i8, ptr %6, i64 32
  store volatile ptr %11, ptr %11, align 8
  %12 = getelementptr inbounds i8, ptr %6, i64 40
  store volatile ptr %11, ptr %12, align 8
  %13 = getelementptr inbounds i8, ptr %6, i64 48
  %14 = getelementptr inbounds i8, ptr %6, i64 64
  store ptr %9, ptr %14, align 8
  %15 = sext i32 %0 to i64
  store i64 %15, ptr %13, align 8
  %16 = sext i32 %1 to i64
  %17 = getelementptr inbounds i8, ptr %6, i64 56
  store i64 %16, ptr %17, align 8
  %18 = getelementptr inbounds i8, ptr %6, i64 72
  store i64 4096, ptr %18, align 8
  %19 = getelementptr inbounds i8, ptr %6, i64 112
  store i32 %2, ptr %19, align 8
  %20 = getelementptr inbounds i8, ptr %6, i64 116
  store i32 %3, ptr %20, align 4
  %21 = load ptr, ptr getelementptr inbounds (%struct.list_head, ptr @pci_root_infos, i64 0, i32 1), align 8
  store ptr %6, ptr getelementptr inbounds (%struct.list_head, ptr @pci_root_infos, i64 0, i32 1), align 8
  store ptr @pci_root_infos, ptr %6, align 8
  %22 = getelementptr inbounds i8, ptr %6, i64 8
  store ptr %21, ptr %22, align 8
  store volatile ptr %6, ptr %21, align 8
  br label %23

23:                                               ; preds = %8, %4
  ret ptr %6
}

; Function Attrs: nofree nounwind null_pointer_is_valid
declare dso_local noundef i32 @sprintf(ptr noalias nocapture noundef writeonly, ptr nocapture noundef readonly, ...) local_unnamed_addr #5

; Function Attrs: fn_ret_thunk_extern nounwind null_pointer_is_valid
define dso_local void @update_res(ptr noundef %0, i64 noundef %1, i64 noundef %2, i64 noundef %3, i32 noundef %4) local_unnamed_addr #1 align 16 {
  %6 = icmp ugt i64 %1, %2
  %7 = icmp eq i64 %1, -1
  %8 = or i1 %7, %6
  br i1 %8, label %49, label %9

9:                                                ; preds = %5
  %10 = icmp eq i32 %4, 0
  br i1 %10, label %.loopexit, label %11

11:                                               ; preds = %9
  %12 = getelementptr inbounds i8, ptr %0, i64 32
  %13 = load ptr, ptr %12, align 8
  %14 = icmp eq ptr %13, %12
  br i1 %14, label %.loopexit, label %.preheader

.preheader:                                       ; preds = %11, %33
  %15 = phi ptr [ %34, %33 ], [ %13, %11 ]
  %16 = getelementptr inbounds i8, ptr %15, i64 40
  %17 = load i64, ptr %16, align 8
  %18 = icmp eq i64 %17, %3
  br i1 %18, label %19, label %33

19:                                               ; preds = %.preheader
  %20 = getelementptr inbounds i8, ptr %15, i64 16
  %21 = load i64, ptr %20, align 8
  %22 = tail call i64 @llvm.umax.i64(i64 %21, i64 %1)
  %23 = getelementptr inbounds i8, ptr %15, i64 24
  %24 = load i64, ptr %23, align 8
  %25 = tail call i64 @llvm.umin.i64(i64 %24, i64 %2)
  %26 = add i64 %25, 1
  %27 = icmp ugt i64 %22, %26
  br i1 %27, label %33, label %28

28:                                               ; preds = %19
  %29 = getelementptr inbounds i8, ptr %15, i64 16
  %30 = getelementptr inbounds i8, ptr %15, i64 24
  %31 = tail call i64 @llvm.umin.i64(i64 %21, i64 %1)
  %32 = tail call i64 @llvm.umax.i64(i64 %24, i64 %2)
  store i64 %31, ptr %29, align 8
  store i64 %32, ptr %30, align 8
  br label %49

33:                                               ; preds = %19, %.preheader
  %34 = load ptr, ptr %15, align 8
  %35 = icmp eq ptr %34, %12
  br i1 %35, label %.loopexit, label %.preheader, !llvm.loop !10

.loopexit:                                        ; preds = %33, %11, %9
  %36 = load ptr, ptr getelementptr inbounds ([3 x [14 x ptr]], ptr @kmalloc_caches, i64 0, i64 0, i64 1), align 8
  %37 = tail call noalias align 8 dereferenceable_or_null(80) ptr @kmalloc_trace(ptr noundef %36, i32 noundef 3520, i64 noundef 80) #10
  %38 = icmp eq ptr %37, null
  br i1 %38, label %49, label %39

39:                                               ; preds = %.loopexit
  %40 = getelementptr inbounds i8, ptr %37, i64 16
  %41 = getelementptr inbounds i8, ptr %0, i64 16
  %42 = getelementptr inbounds i8, ptr %37, i64 32
  store ptr %41, ptr %42, align 8
  %43 = getelementptr inbounds i8, ptr %37, i64 40
  store i64 %3, ptr %43, align 8
  store i64 %1, ptr %40, align 8
  %44 = getelementptr inbounds i8, ptr %37, i64 24
  store i64 %2, ptr %44, align 8
  %45 = getelementptr inbounds i8, ptr %0, i64 32
  %46 = getelementptr inbounds i8, ptr %0, i64 40
  %47 = load ptr, ptr %46, align 8
  store ptr %37, ptr %46, align 8
  store ptr %45, ptr %37, align 8
  %48 = getelementptr inbounds i8, ptr %37, i64 8
  store ptr %47, ptr %48, align 8
  store volatile ptr %37, ptr %47, align 8
  br label %49

49:                                               ; preds = %39, %.loopexit, %28, %5
  ret void
}

; Function Attrs: null_pointer_is_valid allocsize(2)
declare dso_local noalias ptr @kmalloc_trace(ptr noundef, i32 noundef, i64 noundef) local_unnamed_addr #6

; Function Attrs: mustprogress nocallback nofree nosync nounwind speculatable willreturn memory(none)
declare i64 @llvm.umax.i64(i64, i64) #7

; Function Attrs: mustprogress nocallback nofree nosync nounwind speculatable willreturn memory(none)
declare i64 @llvm.umin.i64(i64, i64) #7


!llvm.module.flags = !{!0, !1, !2, !3, !4}

!0 = !{i32 1, !"wchar_size", i32 2}
!1 = !{i32 8, !"cf-protection-branch", i32 1}
!2 = !{i32 4, !"function_return_thunk_extern", i32 1}
!3 = !{i32 4, !"indirect_branch_cs_prefix", i32 1}
!4 = !{i32 4, !"SkipRaxSetup", i32 1}
!5 = distinct !{!5, !6, !7}
!6 = !{!"llvm.loop.mustprogress"}
!7 = !{!"llvm.loop.unroll.disable"}
!8 = distinct !{!8, !6, !7}
!9 = distinct !{!9, !6, !7}
!10 = distinct !{!10, !6, !7}
